target datalayout = "e-m:e-p270:32:32-p271:32:32-p272:64:64-i64:64-i128:128-f80:128-n8:16:32:64-S128"
target triple = "x86_64-pc-linux-gnu"

; Function Attrs: nounwind uwtable
define hidden void @ScaleCols_C(ptr noundef %0, ptr noundef %1, i32 noundef %2, i32 noundef %3, i32 noundef %4) #0 {
  %6 = alloca ptr, align 8
  %7 = alloca ptr, align 8
  %8 = alloca i32, align 4
  %9 = alloca i32, align 4
  %10 = alloca i32, align 4
  %11 = alloca i32, align 4
  store ptr %0, ptr %6, align 8
  store ptr %1, ptr %7, align 8
  store i32 %2, ptr %8, align 4
  store i32 %3, ptr %9, align 4
  store i32 %4, ptr %10, align 4
  store i32 0, ptr %11, align 4
  br label %12

12:                                               ; preds = %42, %5
  %13 = load i32, ptr %11, align 4
  %14 = load i32, ptr %8, align 4
  %15 = sub nsw i32 %14, 1
  %16 = icmp slt i32 %13, %15
  br i1 %16, label %17, label %45

17:                                               ; preds = %12
  %18 = load ptr, ptr %7, align 8
  %19 = load i32, ptr %9, align 4
  %20 = ashr i32 %19, 16
  %21 = sext i32 %20 to i64
  %22 = getelementptr inbounds i8, ptr %18, i64 %21
  %23 = load i8, ptr %22, align 1
  %24 = load ptr, ptr %6, align 8
  %25 = getelementptr inbounds i8, ptr %24, i64 0
  store i8 %23, ptr %25, align 1
  %26 = load i32, ptr %10, align 4
  %27 = load i32, ptr %9, align 4
  %28 = add nsw i32 %27, %26
  store i32 %28, ptr %9, align 4
  %29 = load ptr, ptr %7, align 8
  %30 = load i32, ptr %9, align 4
  %31 = ashr i32 %30, 16
  %32 = sext i32 %31 to i64
  %33 = getelementptr inbounds i8, ptr %29, i64 %32
  %34 = load i8, ptr %33, align 1
  %35 = load ptr, ptr %6, align 8
  %36 = getelementptr inbounds i8, ptr %35, i64 1
  store i8 %34, ptr %36, align 1
  %37 = load i32, ptr %10, align 4
  %38 = load i32, ptr %9, align 4
  %39 = add nsw i32 %38, %37
  store i32 %39, ptr %9, align 4
  %40 = load ptr, ptr %6, align 8
  %41 = getelementptr inbounds i8, ptr %40, i64 2
  store ptr %41, ptr %6, align 8
  br label %42

42:                                               ; preds = %17
  %43 = load i32, ptr %11, align 4
  %44 = add nsw i32 %43, 2
  store i32 %44, ptr %11, align 4
  br label %12, !llvm.loop !9

45:                                               ; preds = %12
  %46 = load i32, ptr %8, align 4
  %47 = and i32 %46, 1
  %48 = icmp ne i32 %47, 0
  br i1 %48, label %49, label %58

49:                                               ; preds = %45
  %50 = load ptr, ptr %7, align 8
  %51 = load i32, ptr %9, align 4
  %52 = ashr i32 %51, 16
  %53 = sext i32 %52 to i64
  %54 = getelementptr inbounds i8, ptr %50, i64 %53
  %55 = load i8, ptr %54, align 1
  %56 = load ptr, ptr %6, align 8
  %57 = getelementptr inbounds i8, ptr %56, i64 0
  store i8 %55, ptr %57, align 1
  br label %58

58:                                               ; preds = %49, %45
  ret void
}