; Function Attrs: nofree norecurse nosync nounwind memory(argmem: readwrite) uwtable
define hidden void @ScaleCols_C(ptr noundef writeonly captures(none) %0, ptr noundef readonly captures(none) %1, i32 noundef %2, i32 noundef %3, i32 noundef %4) local_unnamed_addr #0 {
  %6 = add nsw i32 %2, -1
  %invariant.op = shl i32 %4, 1
  %7 = icmp sgt i32 %2, 1
  br i1 %7, label %.lr.ph, label %._crit_edge

.lr.ph:                                           ; preds = %5, %.lr.ph
  %.021 = phi i32 [ %19, %.lr.ph ], [ 0, %5 ]
  %.01720 = phi ptr [ %18, %.lr.ph ], [ %0, %5 ]
  %.01819 = phi i32 [ %.reass, %.lr.ph ], [ %3, %5 ]
  %8 = ashr i32 %.01819, 16
  %9 = sext i32 %8 to i64
  %10 = getelementptr inbounds i8, ptr %1, i64 %9
  %11 = load i8, ptr %10, align 1
  store i8 %11, ptr %.01720, align 1
  %12 = add nsw i32 %.01819, %4
  %13 = ashr i32 %12, 16
  %14 = sext i32 %13 to i64
  %15 = getelementptr inbounds i8, ptr %1, i64 %14
  %16 = load i8, ptr %15, align 1
  %17 = getelementptr inbounds nuw i8, ptr %.01720, i64 1
  store i8 %16, ptr %17, align 1
  %.reass = add i32 %.01819, %invariant.op
  %18 = getelementptr inbounds nuw i8, ptr %.01720, i64 2
  %19 = add nuw nsw i32 %.021, 2
  %20 = icmp slt i32 %19, %6
  br i1 %20, label %.lr.ph, label %._crit_edge, !llvm.loop !9

._crit_edge:                                      ; preds = %.lr.ph, %5
  %.018.lcssa = phi i32 [ %3, %5 ], [ %.reass, %.lr.ph ]
  %.017.lcssa = phi ptr [ %0, %5 ], [ %18, %.lr.ph ]
  %21 = and i32 %2, 1
  %.not = icmp eq i32 %21, 0
  br i1 %.not, label %27, label %22

22:                                               ; preds = %._crit_edge
  %23 = ashr i32 %.018.lcssa, 16
  %24 = sext i32 %23 to i64
  %25 = getelementptr inbounds i8, ptr %1, i64 %24
  %26 = load i8, ptr %25, align 1
  store i8 %26, ptr %.017.lcssa, align 1
  br label %27

27:                                               ; preds = %22, %._crit_edge
  ret void
}